target datalayout = "e-m:e-p270:32:32-p271:32:32-p272:64:64-i64:64-i128:128-f80:128-n8:16:32:64-S128"
target triple = "x86_64-pc-linux-gnu"

%struct.expert_field = type { i32, i32 }
%struct.MessageHeader = type { [4 x i8], %struct.Version, i8, i8, i32, i32, i32, ptr }
%struct.Version = type { i8, i8 }

@hf_GIAS_ProductMgr_get_related_file_types_return_loop = internal global i32 0, align 4
@hf_GIAS_ProductMgr_get_related_file_types_return = internal global i32 0, align 4
@ei_gias_unknown_giop_msg = internal global %struct.expert_field zeroinitializer, align 4
@ei_gias_unknown_exception = internal global %struct.expert_field zeroinitializer, align 4
@ett_giop_sequence = internal global i32 0, align 4
@boundary = internal global i32 12, align 4
@.str.826 = private unnamed_addr constant [21 x i8] c"Unknown exception %d\00", align 1
@.str.827 = private unnamed_addr constant [24 x i8] c"Unknown GIOP message %d\00", align 1
@.str.862 = private unnamed_addr constant [55 x i8] c"sequence GIAS_ProductMgr_get_related_file_types_return\00", align 1

; Function Attrs: null_pointer_is_valid sspstrong uwtable
define internal void @decode_GIAS_ProductMgr_get_related_file_types(ptr noundef %0, ptr noundef %1, ptr noundef %2, ptr noundef %3, ptr noundef %4, ptr noundef %5, ptr noundef %6, i1 noundef zeroext %7) #0 {
  %9 = alloca ptr, align 8
  %10 = alloca ptr, align 8
  %11 = alloca ptr, align 8
  %12 = alloca ptr, align 8
  %13 = alloca ptr, align 8
  %14 = alloca ptr, align 8
  %15 = alloca ptr, align 8
  %16 = alloca i8, align 1
  %17 = alloca i32, align 4
  %18 = alloca i32, align 4
  %19 = alloca ptr, align 8
  store ptr %0, ptr %9, align 8
  store ptr %1, ptr %10, align 8
  store ptr %2, ptr %11, align 8
  store ptr %3, ptr %12, align 8
  store ptr %4, ptr %13, align 8
  store ptr %5, ptr %14, align 8
  store ptr %6, ptr %15, align 8
  %20 = zext i1 %7 to i8
  store i8 %20, ptr %16, align 1
  call void @llvm.lifetime.start.p0(i64 4, ptr %17) #6
  call void @llvm.lifetime.start.p0(i64 4, ptr %18) #6
  %21 = load ptr, ptr %14, align 8
  %22 = getelementptr inbounds nuw %struct.MessageHeader, ptr %21, i32 0, i32 3
  %23 = load i8, ptr %22, align 1
  %24 = zext i8 %23 to i32
  switch i32 %24, label %84 [
    i32 0, label %25
    i32 1, label %33
  ]

25:                                               ; preds = %8
  %26 = load ptr, ptr %9, align 8
  %27 = load ptr, ptr %10, align 8
  %28 = load ptr, ptr %11, align 8
  %29 = load ptr, ptr %13, align 8
  %30 = load i8, ptr %16, align 1, !range !6, !noundef !7
  %31 = trunc i8 %30 to i1
  %32 = load i32, ptr @boundary, align 4
  call void @get_CDR_object(ptr noundef %26, ptr noundef %27, ptr noundef %28, ptr noundef %29, i1 noundef zeroext %31, i32 noundef %32)
  br label %92

33:                                               ; preds = %8
  %34 = load ptr, ptr %14, align 8
  %35 = getelementptr inbounds nuw %struct.MessageHeader, ptr %34, i32 0, i32 6
  %36 = load i32, ptr %35, align 8
  switch i32 %36, label %76 [
    i32 0, label %37
    i32 1, label %83
  ]

37:                                               ; preds = %33
  %38 = load ptr, ptr %9, align 8
  %39 = load ptr, ptr %13, align 8
  %40 = load i8, ptr %16, align 1, !range !6, !noundef !7
  %41 = trunc i8 %40 to i1
  %42 = load i32, ptr @boundary, align 4
  %43 = call i32 @get_CDR_ulong(ptr noundef %38, ptr noundef %39, i1 noundef zeroext %41, i32 noundef %42)
  store i32 %43, ptr %17, align 4
  %44 = load ptr, ptr %11, align 8
  %45 = load i32, ptr @hf_GIAS_ProductMgr_get_related_file_types_return_loop, align 4
  %46 = load ptr, ptr %9, align 8
  %47 = load ptr, ptr %13, align 8
  %48 = load i32, ptr %47, align 4
  %49 = sub i32 %48, 4
  %50 = load i32, ptr %17, align 4
  %51 = call ptr @proto_tree_add_uint(ptr noundef %44, i32 noundef %45, ptr noundef %46, i32 noundef %49, i32 noundef 4, i32 noundef %50)
  call void @llvm.lifetime.start.p0(i64 8, ptr %19) #6
  %52 = load ptr, ptr %11, align 8
  store ptr %52, ptr %19, align 8
  %53 = load ptr, ptr %11, align 8
  %54 = load ptr, ptr %9, align 8
  %55 = load ptr, ptr %13, align 8
  %56 = load i32, ptr %55, align 4
  %57 = load i32, ptr @ett_giop_sequence, align 4
  %58 = call ptr @proto_tree_add_subtree(ptr noundef %53, ptr noundef %54, i32 noundef %56, i32 noundef -1, i32 noundef %57, ptr noundef null, ptr noundef @.str.862)
  store ptr %58, ptr %11, align 8
  store i32 0, ptr %18, align 4
  br label %59

59:                                               ; preds = %71, %37
  %60 = load i32, ptr %18, align 4
  %61 = load i32, ptr %17, align 4
  %62 = icmp ult i32 %60, %61
  br i1 %62, label %63, label %74

63:                                               ; preds = %59
  %64 = load ptr, ptr %11, align 8
  %65 = load ptr, ptr %9, align 8
  %66 = load ptr, ptr %13, align 8
  %67 = load i8, ptr %16, align 1, !range !6, !noundef !7
  %68 = trunc i8 %67 to i1
  %69 = load i32, ptr @boundary, align 4
  %70 = load i32, ptr @hf_GIAS_ProductMgr_get_related_file_types_return, align 4
  call void @giop_add_CDR_string(ptr noundef %64, ptr noundef %65, ptr noundef %66, i1 noundef zeroext %68, i32 noundef %69, i32 noundef %70)
  br label %71

71:                                               ; preds = %63
  %72 = load i32, ptr %18, align 4
  %73 = add i32 %72, 1
  store i32 %73, ptr %18, align 4
  br label %59, !llvm.loop !20

74:                                               ; preds = %59
  %75 = load ptr, ptr %19, align 8
  store ptr %75, ptr %11, align 8
  call void @llvm.lifetime.end.p0(i64 8, ptr %19) #6
  br label %83

76:                                               ; preds = %33
  %77 = load ptr, ptr %10, align 8
  %78 = load ptr, ptr %12, align 8
  %79 = load ptr, ptr %14, align 8
  %80 = getelementptr inbounds nuw %struct.MessageHeader, ptr %79, i32 0, i32 6
  %81 = load i32, ptr %80, align 8
  %82 = call ptr (ptr, ptr, ptr, ptr, ...) @expert_add_info_format(ptr noundef %77, ptr noundef %78, ptr noundef @ei_gias_unknown_exception, ptr noundef @.str.826, i32 noundef %81)
  br label %83

83:                                               ; preds = %76, %33, %74
  br label %92

84:                                               ; preds = %8
  %85 = load ptr, ptr %10, align 8
  %86 = load ptr, ptr %12, align 8
  %87 = load ptr, ptr %14, align 8
  %88 = getelementptr inbounds nuw %struct.MessageHeader, ptr %87, i32 0, i32 3
  %89 = load i8, ptr %88, align 1
  %90 = zext i8 %89 to i32
  %91 = call ptr (ptr, ptr, ptr, ptr, ...) @expert_add_info_format(ptr noundef %85, ptr noundef %86, ptr noundef @ei_gias_unknown_giop_msg, ptr noundef @.str.827, i32 noundef %90)
  br label %92

92:                                               ; preds = %84, %83, %25
  call void @llvm.lifetime.end.p0(i64 4, ptr %18) #6
  call void @llvm.lifetime.end.p0(i64 4, ptr %17) #6
  ret void
}