; Function Attrs: null_pointer_is_valid sspstrong uwtable
define internal fastcc void @decode_GIAS_ProductMgr_get_related_file_types(ptr noundef %0, ptr noundef %1, ptr noundef %2, ptr noundef %3, ptr noundef %4, ptr noundef readonly captures(none) %5, i1 noundef zeroext %6) unnamed_addr #0 {
  %8 = getelementptr inbounds nuw i8, ptr %5, i64 7
  %9 = load i8, ptr %8, align 1
  switch i8 %9, label %27 [
    i8 0, label %10
    i8 1, label %11
  ]

10:                                               ; preds = %7
  tail call void @get_CDR_object(ptr noundef %0, ptr noundef %1, ptr noundef %2, ptr noundef %4, i1 noundef zeroext %6, i32 noundef 12)
  br label %.loopexit

11:                                               ; preds = %7
  %12 = getelementptr inbounds nuw i8, ptr %5, i64 16
  %13 = load i32, ptr %12, align 8
  switch i32 %13, label %25 [
    i32 0, label %14
    i32 1, label %.loopexit
  ]

14:                                               ; preds = %11
  %15 = tail call i32 @get_CDR_ulong(ptr noundef %0, ptr noundef %4, i1 noundef zeroext %6, i32 noundef 12)
  %16 = load i32, ptr @hf_GIAS_ProductMgr_get_related_file_types_return_loop, align 4
  %17 = load i32, ptr %4, align 4
  %18 = add i32 %17, -4
  %19 = tail call ptr @proto_tree_add_uint(ptr noundef %2, i32 noundef %16, ptr noundef %0, i32 noundef %18, i32 noundef 4, i32 noundef %15)
  %20 = load i32, ptr %4, align 4
  %21 = load i32, ptr @ett_giop_sequence, align 4
  %22 = tail call ptr @proto_tree_add_subtree(ptr noundef %2, ptr noundef %0, i32 noundef %20, i32 noundef -1, i32 noundef %21, ptr noundef null, ptr noundef nonnull @.str.862)
  %.not = icmp eq i32 %15, 0
  br i1 %.not, label %.loopexit, label %.lr.ph

.lr.ph:                                           ; preds = %14, %.lr.ph
  %.01 = phi i32 [ %24, %.lr.ph ], [ 0, %14 ]
  %23 = load i32, ptr @hf_GIAS_ProductMgr_get_related_file_types_return, align 4
  tail call void @giop_add_CDR_string(ptr noundef %22, ptr noundef %0, ptr noundef %4, i1 noundef zeroext %6, i32 noundef 12, i32 noundef %23)
  %24 = add nuw i32 %.01, 1
  %exitcond.not = icmp eq i32 %24, %15
  br i1 %exitcond.not, label %.loopexit, label %.lr.ph, !llvm.loop !19

25:                                               ; preds = %11
  %26 = tail call ptr (ptr, ptr, ptr, ptr, ...) @expert_add_info_format(ptr noundef %1, ptr noundef %3, ptr noundef nonnull @ei_gias_unknown_exception, ptr noundef nonnull @.str.826, i32 noundef %13)
  br label %.loopexit

27:                                               ; preds = %7
  %28 = zext i8 %9 to i32
  %29 = tail call ptr (ptr, ptr, ptr, ptr, ...) @expert_add_info_format(ptr noundef %1, ptr noundef %3, ptr noundef nonnull @ei_gias_unknown_giop_msg, ptr noundef nonnull @.str.827, i32 noundef %28)
  br label %.loopexit

.loopexit:                                        ; preds = %.lr.ph, %14, %11, %25, %27, %10
  ret void
}